target datalayout = "e-m:e-p270:32:32-p271:32:32-p272:64:64-i64:64-i128:128-f80:128-n8:16:32:64-S128"
target triple = "x86_64-pc-linux-gnu"

%"class.llvm::SmallVectorBase" = type { ptr, i32, i32 }
%"struct.llvm::IRPosition" = type { %"class.llvm::PointerIntPair", ptr }
%"class.llvm::PointerIntPair" = type { %"struct.llvm::detail::PunnedPointer" }
%"struct.llvm::detail::PunnedPointer" = type { [8 x i8] }
%"struct.llvm::AADepGraphNode" = type { ptr, %"class.llvm::SmallSetVector" }
%"class.llvm::SmallSetVector" = type { %"class.llvm::SetVector" }
%"class.llvm::SetVector" = type { %"class.llvm::DenseSet", %"class.llvm::SmallVector.39" }
%"class.llvm::DenseSet" = type { %"class.llvm::detail::DenseSetImpl" }
%"class.llvm::detail::DenseSetImpl" = type { %"class.llvm::DenseMap.36" }
%"class.llvm::DenseMap.36" = type <{ ptr, i32, i32, i32, [4 x i8] }>
%"class.llvm::SmallVector.39" = type { %"class.llvm::SmallVectorImpl.40", %"struct.llvm::SmallVectorStorage.43" }
%"class.llvm::SmallVectorImpl.40" = type { %"class.llvm::SmallVectorTemplateBase.41" }
%"class.llvm::SmallVectorTemplateBase.41" = type { %"class.llvm::SmallVectorTemplateCommon.42" }
%"class.llvm::SmallVectorTemplateCommon.42" = type { %"class.llvm::SmallVectorBase" }
%"struct.llvm::SmallVectorStorage.43" = type { [16 x i8] }
%"struct.llvm::StateWrapper.base" = type <{ %"struct.llvm::AbstractAttribute", %"struct.llvm::BooleanState.base" }>
%"struct.llvm::AbstractAttribute" = type { %"struct.llvm::AADepGraphNode", %"struct.llvm::IRPosition" }
%"struct.llvm::BooleanState.base" = type { %"struct.llvm::IntegerStateBase.base" }
%"struct.llvm::IntegerStateBase.base" = type <{ %"struct.llvm::AbstractState", i8, i8 }>
%"struct.llvm::AbstractState" = type { ptr }
%"class.std::optional.838" = type { %"struct.std::_Optional_base.839" }
%"struct.std::_Optional_base.839" = type { %"struct.std::_Optional_payload.841" }
%"struct.std::_Optional_payload.841" = type { %"struct.std::_Optional_payload_base.base.843", [7 x i8] }
%"struct.std::_Optional_payload_base.base.843" = type <{ %"union.std::_Optional_payload_base<llvm::Value *>::_Storage", i8 }>
%"union.std::_Optional_payload_base<llvm::Value *>::_Storage" = type { ptr }
%"struct.(anonymous namespace)::AAFoldRuntimeCallCallSiteReturned" = type { %"struct.(anonymous namespace)::AAFoldRuntimeCall.base", [6 x i8], %"class.std::optional.838", i32, [4 x i8] }
%"struct.(anonymous namespace)::AAFoldRuntimeCall.base" = type { %"struct.llvm::StateWrapper.base" }
%class.anon.1114 = type { ptr, ptr }

; Function Attrs: mustprogress nounwind uwtable
define internal { ptr, i8 } @_ZZN12_GLOBAL__N_133AAFoldRuntimeCallCallSiteReturned10initializeERN4llvm10AttributorEENKUlRKNS1_10IRPositionEPKNS1_17AbstractAttributeERbE_clES6_S9_SA_(ptr noundef nonnull align 8 dereferenceable(16) %0, ptr noundef nonnull align 8 dereferenceable(16) %1, ptr noundef %2, ptr noundef nonnull align 1 dereferenceable(1) %3) #1 align 2 {
  %5 = alloca %"class.std::optional.838", align 8
  %6 = alloca ptr, align 8
  %7 = alloca ptr, align 8
  %8 = alloca ptr, align 8
  %9 = alloca ptr, align 8
  store ptr %0, ptr %6, align 8
  store ptr %1, ptr %7, align 8
  store ptr %2, ptr %8, align 8
  store ptr %3, ptr %9, align 8
  %10 = load ptr, ptr %6, align 8
  %11 = getelementptr inbounds nuw %class.anon.1114, ptr %10, i32 0, i32 0
  %12 = load ptr, ptr %11, align 8
  %13 = getelementptr inbounds i8, ptr %12, i64 80
  %14 = load ptr, ptr %13, align 8
  %15 = getelementptr inbounds ptr, ptr %14, i64 3
  %16 = load ptr, ptr %15, align 8
  %17 = call noundef zeroext i1 %16(ptr noundef nonnull align 8 dereferenceable(10) %13)
  br i1 %17, label %27, label %18

18:                                               ; preds = %4
  %19 = load ptr, ptr %9, align 8
  store i8 1, ptr %19, align 1
  %20 = load ptr, ptr %8, align 8
  %21 = icmp ne ptr %20, null
  br i1 %21, label %22, label %26

22:                                               ; preds = %18
  %23 = getelementptr inbounds nuw %class.anon.1114, ptr %10, i32 0, i32 1
  %24 = load ptr, ptr %23, align 8
  %25 = load ptr, ptr %8, align 8
  call void @_ZN4llvm10Attributor16recordDependenceERKNS_17AbstractAttributeES3_NS_10DepClassTyE(ptr noundef nonnull align 8 dereferenceable(4296) %24, ptr noundef nonnull align 8 dereferenceable(80) %12, ptr noundef nonnull align 8 dereferenceable(80) %25, i32 noundef 1)
  br label %26

26:                                               ; preds = %22, %18
  br label %27

27:                                               ; preds = %26, %4
  %28 = getelementptr inbounds nuw %"struct.(anonymous namespace)::AAFoldRuntimeCallCallSiteReturned", ptr %12, i32 0, i32 2
  call void @llvm.memcpy.p0.p0.i64(ptr align 8 %5, ptr align 8 %28, i64 16, i1 false)
  %29 = getelementptr inbounds nuw %"class.std::optional.838", ptr %5, i32 0, i32 0
  %30 = getelementptr inbounds nuw %"struct.std::_Optional_base.839", ptr %29, i32 0, i32 0
  %31 = load { ptr, i8 }, ptr %30, align 8
  ret { ptr, i8 } %31
}

; Function Attrs: mustprogress nounwind uwtable
define linkonce_odr hidden noundef ptr @_ZNKSt9_Any_data9_M_accessEv(ptr noundef nonnull align 8 dereferenceable(16) %0) #1 comdat align 2 {
  %2 = alloca ptr, align 8
  store ptr %0, ptr %2, align 8
  %3 = load ptr, ptr %2, align 8
  %4 = getelementptr inbounds [16 x i8], ptr %3, i64 0, i64 0
  ret ptr %4
}

; Function Attrs: mustprogress nounwind uwtable
define internal { ptr, i8 } @_ZSt13__invoke_implISt8optionalIPN4llvm5ValueEERZN12_GLOBAL__N_133AAFoldRuntimeCallCallSiteReturned10initializeERNS1_10AttributorEEUlRKNS1_10IRPositionEPKNS1_17AbstractAttributeERbE_JSB_SE_SF_EET_St14__invoke_otherOT0_DpOT1_(ptr noundef nonnull align 8 dereferenceable(16) %0, ptr noundef nonnull align 8 dereferenceable(16) %1, ptr noundef nonnull align 8 dereferenceable(8) %2, ptr noundef nonnull align 1 dereferenceable(1) %3) #1 {
  %5 = alloca %"class.std::optional.838", align 8
  %6 = alloca ptr, align 8
  %7 = alloca ptr, align 8
  %8 = alloca ptr, align 8
  %9 = alloca ptr, align 8
  store ptr %0, ptr %6, align 8
  store ptr %1, ptr %7, align 8
  store ptr %2, ptr %8, align 8
  store ptr %3, ptr %9, align 8
  %10 = load ptr, ptr %6, align 8
  %11 = load ptr, ptr %7, align 8
  %12 = load ptr, ptr %8, align 8
  %13 = load ptr, ptr %12, align 8
  %14 = load ptr, ptr %9, align 8
  %15 = call { ptr, i8 } @_ZZN12_GLOBAL__N_133AAFoldRuntimeCallCallSiteReturned10initializeERN4llvm10AttributorEENKUlRKNS1_10IRPositionEPKNS1_17AbstractAttributeERbE_clES6_S9_SA_(ptr noundef nonnull align 8 dereferenceable(16) %10, ptr noundef nonnull align 8 dereferenceable(16) %11, ptr noundef %13, ptr noundef nonnull align 1 dereferenceable(1) %14)
  %16 = getelementptr inbounds nuw %"class.std::optional.838", ptr %5, i32 0, i32 0
  %17 = getelementptr inbounds nuw %"struct.std::_Optional_base.839", ptr %16, i32 0, i32 0
  %18 = getelementptr inbounds nuw { ptr, i8 }, ptr %17, i32 0, i32 0
  %19 = extractvalue { ptr, i8 } %15, 0
  store ptr %19, ptr %18, align 8
  %20 = getelementptr inbounds nuw { ptr, i8 }, ptr %17, i32 0, i32 1
  %21 = extractvalue { ptr, i8 } %15, 1
  store i8 %21, ptr %20, align 8
  %22 = getelementptr inbounds nuw %"class.std::optional.838", ptr %5, i32 0, i32 0
  %23 = getelementptr inbounds nuw %"struct.std::_Optional_base.839", ptr %22, i32 0, i32 0
  %24 = load { ptr, i8 }, ptr %23, align 8
  ret { ptr, i8 } %24
}

; Function Attrs: mustprogress nounwind uwtable
define internal noundef nonnull align 8 dereferenceable(16) ptr @_ZNKSt9_Any_data9_M_accessIZN12_GLOBAL__N_133AAFoldRuntimeCallCallSiteReturned10initializeERN4llvm10AttributorEEUlRKNS3_10IRPositionEPKNS3_17AbstractAttributeERbE_EERKT_v(ptr noundef nonnull align 8 dereferenceable(16) %0) #1 align 2 {
  %2 = alloca ptr, align 8
  store ptr %0, ptr %2, align 8
  %3 = load ptr, ptr %2, align 8
  %4 = call noundef ptr @_ZNKSt9_Any_data9_M_accessEv(ptr noundef nonnull align 8 dereferenceable(16) %3) #2
  ret ptr %4
}

; Function Attrs: mustprogress nounwind uwtable
define internal { ptr, i8 } @_ZSt10__invoke_rISt8optionalIPN4llvm5ValueEERZN12_GLOBAL__N_133AAFoldRuntimeCallCallSiteReturned10initializeERNS1_10AttributorEEUlRKNS1_10IRPositionEPKNS1_17AbstractAttributeERbE_JSB_SE_SF_EENSt9enable_ifIX16is_invocable_r_vIT_T0_DpT1_EESJ_E4typeEOSK_DpOSL_(ptr noundef nonnull align 8 dereferenceable(16) %0, ptr noundef nonnull align 8 dereferenceable(16) %1, ptr noundef nonnull align 8 dereferenceable(8) %2, ptr noundef nonnull align 1 dereferenceable(1) %3) #1 {
  %5 = alloca %"class.std::optional.838", align 8
  %6 = alloca ptr, align 8
  %7 = alloca ptr, align 8
  %8 = alloca ptr, align 8
  %9 = alloca ptr, align 8
  store ptr %0, ptr %6, align 8
  store ptr %1, ptr %7, align 8
  store ptr %2, ptr %8, align 8
  store ptr %3, ptr %9, align 8
  %10 = load ptr, ptr %6, align 8
  %11 = load ptr, ptr %7, align 8
  %12 = load ptr, ptr %8, align 8
  %13 = load ptr, ptr %9, align 8
  %14 = call { ptr, i8 } @_ZSt13__invoke_implISt8optionalIPN4llvm5ValueEERZN12_GLOBAL__N_133AAFoldRuntimeCallCallSiteReturned10initializeERNS1_10AttributorEEUlRKNS1_10IRPositionEPKNS1_17AbstractAttributeERbE_JSB_SE_SF_EET_St14__invoke_otherOT0_DpOT1_(ptr noundef nonnull align 8 dereferenceable(16) %10, ptr noundef nonnull align 8 dereferenceable(16) %11, ptr noundef nonnull align 8 dereferenceable(8) %12, ptr noundef nonnull align 1 dereferenceable(1) %13)
  %15 = getelementptr inbounds nuw %"class.std::optional.838", ptr %5, i32 0, i32 0
  %16 = getelementptr inbounds nuw %"struct.std::_Optional_base.839", ptr %15, i32 0, i32 0
  %17 = getelementptr inbounds nuw { ptr, i8 }, ptr %16, i32 0, i32 0
  %18 = extractvalue { ptr, i8 } %14, 0
  store ptr %18, ptr %17, align 8
  %19 = getelementptr inbounds nuw { ptr, i8 }, ptr %16, i32 0, i32 1
  %20 = extractvalue { ptr, i8 } %14, 1
  store i8 %20, ptr %19, align 8
  %21 = getelementptr inbounds nuw %"class.std::optional.838", ptr %5, i32 0, i32 0
  %22 = getelementptr inbounds nuw %"struct.std::_Optional_base.839", ptr %21, i32 0, i32 0
  %23 = load { ptr, i8 }, ptr %22, align 8
  ret { ptr, i8 } %23
}

; Function Attrs: mustprogress nounwind uwtable
define internal noundef ptr @_ZNSt14_Function_base13_Base_managerIZN12_GLOBAL__N_133AAFoldRuntimeCallCallSiteReturned10initializeERN4llvm10AttributorEEUlRKNS3_10IRPositionEPKNS3_17AbstractAttributeERbE_E14_M_get_pointerERKSt9_Any_data(ptr noundef nonnull align 8 dereferenceable(16) %0) #1 align 2 {
  %2 = alloca ptr, align 8
  %3 = alloca ptr, align 8
  store ptr %0, ptr %2, align 8
  %4 = load ptr, ptr %2, align 8
  %5 = call noundef nonnull align 8 dereferenceable(16) ptr @_ZNKSt9_Any_data9_M_accessIZN12_GLOBAL__N_133AAFoldRuntimeCallCallSiteReturned10initializeERN4llvm10AttributorEEUlRKNS3_10IRPositionEPKNS3_17AbstractAttributeERbE_EERKT_v(ptr noundef nonnull align 8 dereferenceable(16) %4) #2
  store ptr %5, ptr %3, align 8
  %6 = load ptr, ptr %3, align 8
  ret ptr %6
}

; Function Attrs: mustprogress nounwind uwtable
define internal { ptr, i8 } @_ZNSt17_Function_handlerIFSt8optionalIPN4llvm5ValueEERKNS1_10IRPositionEPKNS1_17AbstractAttributeERbEZN12_GLOBAL__N_133AAFoldRuntimeCallCallSiteReturned10initializeERNS1_10AttributorEEUlS7_SA_SB_E_E9_M_invokeERKSt9_Any_dataS7_OSA_SB_(ptr noundef nonnull align 8 dereferenceable(16) %0, ptr noundef nonnull align 8 dereferenceable(16) %1, ptr noundef nonnull align 8 dereferenceable(8) %2, ptr noundef nonnull align 1 dereferenceable(1) %3) #1 align 2 {
  %5 = alloca %"class.std::optional.838", align 8
  %6 = alloca ptr, align 8
  %7 = alloca ptr, align 8
  %8 = alloca ptr, align 8
  %9 = alloca ptr, align 8
  store ptr %0, ptr %6, align 8
  store ptr %1, ptr %7, align 8
  store ptr %2, ptr %8, align 8
  store ptr %3, ptr %9, align 8
  %10 = load ptr, ptr %6, align 8
  %11 = call noundef ptr @_ZNSt14_Function_base13_Base_managerIZN12_GLOBAL__N_133AAFoldRuntimeCallCallSiteReturned10initializeERN4llvm10AttributorEEUlRKNS3_10IRPositionEPKNS3_17AbstractAttributeERbE_E14_M_get_pointerERKSt9_Any_data(ptr noundef nonnull align 8 dereferenceable(16) %10) #2
  %12 = load ptr, ptr %7, align 8
  %13 = load ptr, ptr %8, align 8
  %14 = load ptr, ptr %9, align 8
  %15 = call { ptr, i8 } @_ZSt10__invoke_rISt8optionalIPN4llvm5ValueEERZN12_GLOBAL__N_133AAFoldRuntimeCallCallSiteReturned10initializeERNS1_10AttributorEEUlRKNS1_10IRPositionEPKNS1_17AbstractAttributeERbE_JSB_SE_SF_EENSt9enable_ifIX16is_invocable_r_vIT_T0_DpT1_EESJ_E4typeEOSK_DpOSL_(ptr noundef nonnull align 8 dereferenceable(16) %11, ptr noundef nonnull align 8 dereferenceable(16) %12, ptr noundef nonnull align 8 dereferenceable(8) %13, ptr noundef nonnull align 1 dereferenceable(1) %14)
  %16 = getelementptr inbounds nuw %"class.std::optional.838", ptr %5, i32 0, i32 0
  %17 = getelementptr inbounds nuw %"struct.std::_Optional_base.839", ptr %16, i32 0, i32 0
  %18 = getelementptr inbounds nuw { ptr, i8 }, ptr %17, i32 0, i32 0
  %19 = extractvalue { ptr, i8 } %15, 0
  store ptr %19, ptr %18, align 8
  %20 = getelementptr inbounds nuw { ptr, i8 }, ptr %17, i32 0, i32 1
  %21 = extractvalue { ptr, i8 } %15, 1
  store i8 %21, ptr %20, align 8
  %22 = getelementptr inbounds nuw %"class.std::optional.838", ptr %5, i32 0, i32 0
  %23 = getelementptr inbounds nuw %"struct.std::_Optional_base.839", ptr %22, i32 0, i32 0
  %24 = load { ptr, i8 }, ptr %23, align 8
  ret { ptr, i8 } %24
}